; Function Attrs: mustprogress uwtable
define void @_ZN5arrow2io20TransformInputStream5AbortEv(ptr noalias sret(%"class.arrow::Status") align 8 %agg.result, ptr nocapture noundef nonnull readonly align 8 dereferenceable(16) %this) unnamed_addr #0 align 2 {
entry:
  %impl_ = getelementptr inbounds i8, ptr %this, i64 8
  %0 = load ptr, ptr %impl_, align 8
  %1 = load ptr, ptr %0, align 8
  %vtable = load ptr, ptr %1, align 8
  %vbase.offset.ptr = getelementptr i8, ptr %vtable, i64 -56
  %vbase.offset = load i64, ptr %vbase.offset.ptr, align 8
  %add.ptr = getelementptr inbounds i8, ptr %1, i64 %vbase.offset
  %vtable3 = load ptr, ptr %add.ptr, align 8
  %vfn = getelementptr inbounds i8, ptr %vtable3, i64 32
  %2 = load ptr, ptr %vfn, align 8
  tail call void %2(ptr sret(%"class.arrow::Status") align 8 %agg.result, ptr noundef nonnull align 8 dereferenceable(28) %add.ptr)
  ret void
}